target datalayout = "e-m:e-p270:32:32-p271:32:32-p272:64:64-i64:64-i128:128-f80:128-n8:16:32:64-S128"
target triple = "x86_64-pc-linux-gnu"

%struct.Fraig_NodeStruct_t_ = type { i32, i32, i32, i32, i32, i32, i32, ptr, ptr, ptr, ptr, ptr, ptr, ptr, ptr, i32, i32, ptr, ptr, ptr, ptr, ptr, ptr, ptr }

; Function Attrs: nounwind uwtable
define void @Fraig_DetectFanoutFreeCone_rec(ptr noundef %0, ptr noundef %1, ptr noundef %2, i32 noundef %3) #0 {
  %5 = alloca ptr, align 8
  %6 = alloca ptr, align 8
  %7 = alloca ptr, align 8
  %8 = alloca i32, align 4
  store ptr %0, ptr %5, align 8, !tbaa !8
  store ptr %1, ptr %6, align 8, !tbaa !74
  store ptr %2, ptr %7, align 8, !tbaa !74
  store i32 %3, ptr %8, align 4, !tbaa !10
  %9 = load ptr, ptr %5, align 8, !tbaa !8
  %10 = ptrtoint ptr %9 to i64
  %11 = and i64 %10, -2
  %12 = inttoptr i64 %11 to ptr
  store ptr %12, ptr %5, align 8, !tbaa !8
  %13 = load i32, ptr %8, align 4, !tbaa !10
  %14 = icmp ne i32 %13, 0
  br i1 %14, label %20, label %15

15:                                               ; preds = %4
  %16 = load ptr, ptr %5, align 8, !tbaa !8
  %17 = getelementptr inbounds nuw %struct.Fraig_NodeStruct_t_, ptr %16, i32 0, i32 3
  %18 = load i32, ptr %17, align 4, !tbaa !75
  %19 = icmp sgt i32 %18, 1
  br i1 %19, label %24, label %20

20:                                               ; preds = %15, %4
  %21 = load ptr, ptr %5, align 8, !tbaa !8
  %22 = call i32 @Fraig_NodeIsVar(ptr noundef %21)
  %23 = icmp ne i32 %22, 0
  br i1 %23, label %24, label %28

24:                                               ; preds = %20, %15
  %25 = load ptr, ptr %6, align 8, !tbaa !74
  %26 = load ptr, ptr %5, align 8, !tbaa !8
  %27 = call i32 @Fraig_NodeVecPushUnique(ptr noundef %25, ptr noundef %26)
  br label %42

28:                                               ; preds = %20
  %29 = load ptr, ptr %5, align 8, !tbaa !8
  %30 = getelementptr inbounds nuw %struct.Fraig_NodeStruct_t_, ptr %29, i32 0, i32 7
  %31 = load ptr, ptr %30, align 8, !tbaa !57
  %32 = load ptr, ptr %6, align 8, !tbaa !74
  %33 = load ptr, ptr %7, align 8, !tbaa !74
  call void @Fraig_DetectFanoutFreeCone_rec(ptr noundef %31, ptr noundef %32, ptr noundef %33, i32 noundef 0)
  %34 = load ptr, ptr %5, align 8, !tbaa !8
  %35 = getelementptr inbounds nuw %struct.Fraig_NodeStruct_t_, ptr %34, i32 0, i32 8
  %36 = load ptr, ptr %35, align 8, !tbaa !58
  %37 = load ptr, ptr %6, align 8, !tbaa !74
  %38 = load ptr, ptr %7, align 8, !tbaa !74
  call void @Fraig_DetectFanoutFreeCone_rec(ptr noundef %36, ptr noundef %37, ptr noundef %38, i32 noundef 0)
  %39 = load ptr, ptr %7, align 8, !tbaa !74
  %40 = load ptr, ptr %5, align 8, !tbaa !8
  %41 = call i32 @Fraig_NodeVecPushUnique(ptr noundef %39, ptr noundef %40)
  br label %42

42:                                               ; preds = %28, %24
  ret void
}