; Function Attrs: nounwind uwtable
define void @Fraig_DetectFanoutFreeCone_rec(ptr noundef %0, ptr noundef %1, ptr noundef %2, i32 noundef %3) local_unnamed_addr #0 {
  %5 = ptrtoint ptr %0 to i64
  %6 = and i64 %5, -2
  %7 = inttoptr i64 %6 to ptr
  %.not = icmp eq i32 %3, 0
  br i1 %.not, label %8, label %12

8:                                                ; preds = %4
  %9 = getelementptr inbounds nuw i8, ptr %7, i64 12
  %10 = load i32, ptr %9, align 4, !tbaa !78
  %11 = icmp sgt i32 %10, 1
  br i1 %11, label %common.ret, label %12

12:                                               ; preds = %8, %4
  %13 = tail call i32 @Fraig_NodeIsVar(ptr noundef %7) #10
  %.not13 = icmp eq i32 %13, 0
  br i1 %.not13, label %15, label %common.ret

common.ret:                                       ; preds = %8, %12, %15
  %.sink = phi ptr [ %2, %15 ], [ %1, %12 ], [ %1, %8 ]
  %14 = tail call i32 @Fraig_NodeVecPushUnique(ptr noundef %.sink, ptr noundef %7) #10
  ret void

15:                                               ; preds = %12
  %16 = getelementptr inbounds nuw i8, ptr %7, i64 32
  %17 = load ptr, ptr %16, align 8, !tbaa !59
  tail call void @Fraig_DetectFanoutFreeCone_rec(ptr noundef %17, ptr noundef %1, ptr noundef %2, i32 noundef 0)
  %18 = getelementptr inbounds nuw i8, ptr %7, i64 40
  %19 = load ptr, ptr %18, align 8, !tbaa !60
  tail call void @Fraig_DetectFanoutFreeCone_rec(ptr noundef %19, ptr noundef %1, ptr noundef %2, i32 noundef 0)
  br label %common.ret
}